target datalayout = "e-m:e-p270:32:32-p271:32:32-p272:64:64-i64:64-i128:128-f80:128-n8:16:32:64-S128"
target triple = "x86_64-pc-linux-gnu"

%struct.UPropsVectors = type { ptr, i32, i32, i32, i32, i8 }

; Function Attrs: inlinehint mustprogress nounwind uwtable
define internal noundef signext i8 @_ZL9U_FAILURE10UErrorCode(i32 noundef %0) #2 {
  %2 = alloca i32, align 4
  store i32 %0, ptr %2, align 4, !tbaa !9
  %3 = load i32, ptr %2, align 4, !tbaa !9
  %4 = icmp sgt i32 %3, 0
  %5 = zext i1 %4 to i8
  ret i8 %5
}

; Function Attrs: mustprogress uwtable
define ptr @upvec_open_77(i32 noundef %0, ptr noundef %1) #0 {
  %3 = alloca ptr, align 8
  %4 = alloca i32, align 4
  %5 = alloca ptr, align 8
  %6 = alloca ptr, align 8
  %7 = alloca ptr, align 8
  %8 = alloca ptr, align 8
  %9 = alloca i32, align 4
  %10 = alloca i32, align 4
  store i32 %0, ptr %4, align 4, !tbaa !3
  store ptr %1, ptr %5, align 8, !tbaa !7
  call void @llvm.lifetime.start.p0(i64 8, ptr %6) #9
  call void @llvm.lifetime.start.p0(i64 8, ptr %7) #9
  call void @llvm.lifetime.start.p0(i64 8, ptr %8) #9
  call void @llvm.lifetime.start.p0(i64 4, ptr %9) #9
  %11 = load ptr, ptr %5, align 8, !tbaa !7
  %12 = load i32, ptr %11, align 4, !tbaa !9
  %13 = call noundef signext i8 @_ZL9U_FAILURE10UErrorCode(i32 noundef %12)
  %14 = icmp ne i8 %13, 0
  br i1 %14, label %15, label %16

15:                                               ; preds = %2
  store ptr null, ptr %3, align 8
  store i32 1, ptr %10, align 4
  br label %90

16:                                               ; preds = %2
  %17 = load i32, ptr %4, align 4, !tbaa !3
  %18 = icmp slt i32 %17, 1
  br i1 %18, label %19, label %21

19:                                               ; preds = %16
  %20 = load ptr, ptr %5, align 8, !tbaa !7
  store i32 1, ptr %20, align 4, !tbaa !9
  store ptr null, ptr %3, align 8
  store i32 1, ptr %10, align 4
  br label %90

21:                                               ; preds = %16
  %22 = load i32, ptr %4, align 4, !tbaa !3
  %23 = add nsw i32 %22, 2
  store i32 %23, ptr %4, align 4, !tbaa !3
  %24 = call noalias ptr @uprv_malloc_77(i64 noundef 32) #10
  store ptr %24, ptr %6, align 8, !tbaa !11
  %25 = load i32, ptr %4, align 4, !tbaa !3
  %26 = mul nsw i32 4096, %25
  %27 = mul nsw i32 %26, 4
  %28 = sext i32 %27 to i64
  %29 = call noalias ptr @uprv_malloc_77(i64 noundef %28) #10
  store ptr %29, ptr %7, align 8, !tbaa !13
  %30 = load ptr, ptr %6, align 8, !tbaa !11
  %31 = icmp eq ptr %30, null
  br i1 %31, label %35, label %32

32:                                               ; preds = %21
  %33 = load ptr, ptr %7, align 8, !tbaa !13
  %34 = icmp eq ptr %33, null
  br i1 %34, label %35, label %39

35:                                               ; preds = %32, %21
  %36 = load ptr, ptr %6, align 8, !tbaa !11
  call void @uprv_free_77(ptr noundef %36)
  %37 = load ptr, ptr %7, align 8, !tbaa !13
  call void @uprv_free_77(ptr noundef %37)
  %38 = load ptr, ptr %5, align 8, !tbaa !7
  store i32 7, ptr %38, align 4, !tbaa !9
  store ptr null, ptr %3, align 8
  store i32 1, ptr %10, align 4
  br label %90

39:                                               ; preds = %32
  %40 = load ptr, ptr %6, align 8, !tbaa !11
  call void @llvm.memset.p0.i64(ptr align 8 %40, i8 0, i64 32, i1 false)
  %41 = load ptr, ptr %7, align 8, !tbaa !13
  %42 = load ptr, ptr %6, align 8, !tbaa !11
  %43 = getelementptr inbounds nuw %struct.UPropsVectors, ptr %42, i32 0, i32 0
  store ptr %41, ptr %43, align 8, !tbaa !15
  %44 = load i32, ptr %4, align 4, !tbaa !3
  %45 = load ptr, ptr %6, align 8, !tbaa !11
  %46 = getelementptr inbounds nuw %struct.UPropsVectors, ptr %45, i32 0, i32 1
  store i32 %44, ptr %46, align 8, !tbaa !17
  %47 = load ptr, ptr %6, align 8, !tbaa !11
  %48 = getelementptr inbounds nuw %struct.UPropsVectors, ptr %47, i32 0, i32 2
  store i32 4096, ptr %48, align 4, !tbaa !18
  %49 = load ptr, ptr %6, align 8, !tbaa !11
  %50 = getelementptr inbounds nuw %struct.UPropsVectors, ptr %49, i32 0, i32 3
  store i32 3, ptr %50, align 8, !tbaa !19
  %51 = load ptr, ptr %6, align 8, !tbaa !11
  %52 = getelementptr inbounds nuw %struct.UPropsVectors, ptr %51, i32 0, i32 0
  %53 = load ptr, ptr %52, align 8, !tbaa !15
  store ptr %53, ptr %8, align 8, !tbaa !13
  %54 = load ptr, ptr %8, align 8, !tbaa !13
  %55 = load ptr, ptr %6, align 8, !tbaa !11
  %56 = getelementptr inbounds nuw %struct.UPropsVectors, ptr %55, i32 0, i32 3
  %57 = load i32, ptr %56, align 8, !tbaa !19
  %58 = load i32, ptr %4, align 4, !tbaa !3
  %59 = mul nsw i32 %57, %58
  %60 = mul nsw i32 %59, 4
  %61 = sext i32 %60 to i64
  call void @llvm.memset.p0.i64(ptr align 4 %54, i8 0, i64 %61, i1 false)
  %62 = load ptr, ptr %8, align 8, !tbaa !13
  %63 = getelementptr inbounds i32, ptr %62, i64 0
  store i32 0, ptr %63, align 4, !tbaa !3
  %64 = load ptr, ptr %8, align 8, !tbaa !13
  %65 = getelementptr inbounds i32, ptr %64, i64 1
  store i32 1114112, ptr %65, align 4, !tbaa !3
  %66 = load i32, ptr %4, align 4, !tbaa !3
  %67 = load ptr, ptr %8, align 8, !tbaa !13
  %68 = sext i32 %66 to i64
  %69 = getelementptr inbounds i32, ptr %67, i64 %68
  store ptr %69, ptr %8, align 8, !tbaa !13
  store i32 1114112, ptr %9, align 4, !tbaa !3
  br label %70

70:                                               ; preds = %85, %39
  %71 = load i32, ptr %9, align 4, !tbaa !3
  %72 = icmp ule i32 %71, 1114113
  br i1 %72, label %73, label %88

73:                                               ; preds = %70
  %74 = load i32, ptr %9, align 4, !tbaa !3
  %75 = load ptr, ptr %8, align 8, !tbaa !13
  %76 = getelementptr inbounds i32, ptr %75, i64 0
  store i32 %74, ptr %76, align 4, !tbaa !3
  %77 = load i32, ptr %9, align 4, !tbaa !3
  %78 = add i32 %77, 1
  %79 = load ptr, ptr %8, align 8, !tbaa !13
  %80 = getelementptr inbounds i32, ptr %79, i64 1
  store i32 %78, ptr %80, align 4, !tbaa !3
  %81 = load i32, ptr %4, align 4, !tbaa !3
  %82 = load ptr, ptr %8, align 8, !tbaa !13
  %83 = sext i32 %81 to i64
  %84 = getelementptr inbounds i32, ptr %82, i64 %83
  store ptr %84, ptr %8, align 8, !tbaa !13
  br label %85

85:                                               ; preds = %73
  %86 = load i32, ptr %9, align 4, !tbaa !3
  %87 = add i32 %86, 1
  store i32 %87, ptr %9, align 4, !tbaa !3
  br label %70, !llvm.loop !20

88:                                               ; preds = %70
  %89 = load ptr, ptr %6, align 8, !tbaa !11
  store ptr %89, ptr %3, align 8
  store i32 1, ptr %10, align 4
  br label %90

90:                                               ; preds = %88, %35, %19, %15
  call void @llvm.lifetime.end.p0(i64 4, ptr %9) #9
  call void @llvm.lifetime.end.p0(i64 8, ptr %8) #9
  call void @llvm.lifetime.end.p0(i64 8, ptr %7) #9
  call void @llvm.lifetime.end.p0(i64 8, ptr %6) #9
  %91 = load ptr, ptr %3, align 8
  ret ptr %91
}