; Function Attrs: mustprogress uwtable
define noundef ptr @upvec_open_77(i32 noundef %0, ptr noundef captures(none) %1) local_unnamed_addr #0 {
  %3 = load i32, ptr %1, align 4, !tbaa !3
  %4 = icmp slt i32 %3, 1
  br i1 %4, label %5, label %.loopexit

5:                                                ; preds = %2
  %6 = icmp slt i32 %0, 1
  br i1 %6, label %.loopexit.sink.split, label %7

7:                                                ; preds = %5
  %8 = add nuw nsw i32 %0, 2
  %9 = tail call noalias dereferenceable_or_null(32) ptr @uprv_malloc_77(i64 noundef 32) #11
  %10 = shl nsw i32 %8, 14
  %11 = zext nneg i32 %10 to i64
  %12 = tail call noalias ptr @uprv_malloc_77(i64 noundef %11) #11
  %13 = icmp eq ptr %9, null
  %14 = icmp eq ptr %12, null
  %or.cond = select i1 %13, i1 true, i1 %14
  br i1 %or.cond, label %15, label %16

15:                                               ; preds = %7
  tail call void @uprv_free_77(ptr noundef %9)
  tail call void @uprv_free_77(ptr noundef %12)
  br label %.loopexit.sink.split

16:                                               ; preds = %7
  %17 = getelementptr inbounds nuw i8, ptr %9, i64 16
  tail call void @llvm.memset.p0.i64(ptr noundef nonnull align 8 dereferenceable(16) %17, i8 0, i64 16, i1 false)
  store ptr %12, ptr %9, align 8, !tbaa !7
  %18 = getelementptr inbounds nuw i8, ptr %9, i64 8
  store i32 %8, ptr %18, align 8, !tbaa !12
  %19 = getelementptr inbounds nuw i8, ptr %9, i64 12
  store i32 4096, ptr %19, align 4, !tbaa !13
  %20 = getelementptr inbounds nuw i8, ptr %9, i64 16
  store i32 3, ptr %20, align 8, !tbaa !14
  %21 = mul nuw nsw i32 %8, 12
  %22 = zext nneg i32 %21 to i64
  tail call void @llvm.memset.p0.i64(ptr noundef nonnull align 4 dereferenceable(1) %12, i8 0, i64 %22, i1 false)
  store i32 0, ptr %12, align 4, !tbaa !15
  %23 = getelementptr inbounds nuw i8, ptr %12, i64 4
  store i32 1114112, ptr %23, align 4, !tbaa !15
  %24 = zext nneg i32 %8 to i64
  br label %25

25:                                               ; preds = %16, %25
  %.041 = phi i32 [ 1114112, %16 ], [ %26, %25 ]
  %.pn40 = phi ptr [ %12, %16 ], [ %.035, %25 ]
  %.035 = getelementptr inbounds nuw i32, ptr %.pn40, i64 %24
  store i32 %.041, ptr %.035, align 4, !tbaa !15
  %26 = add nuw nsw i32 %.041, 1
  %27 = getelementptr inbounds nuw i8, ptr %.035, i64 4
  store i32 %26, ptr %27, align 4, !tbaa !15
  %exitcond.not = icmp eq i32 %26, 1114114
  br i1 %exitcond.not, label %.loopexit, label %25, !llvm.loop !16

.loopexit.sink.split:                             ; preds = %5, %15
  %.sink = phi i32 [ 7, %15 ], [ 1, %5 ]
  store i32 %.sink, ptr %1, align 4, !tbaa !3
  br label %.loopexit

.loopexit:                                        ; preds = %25, %.loopexit.sink.split, %2
  %.036 = phi ptr [ null, %2 ], [ null, %.loopexit.sink.split ], [ %9, %25 ]
  ret ptr %.036
}